; ModuleID = 'bench/hdf5/original/h5diff_main.ll'
source_filename = "bench/hdf5/original/h5diff_main.ll"
target datalayout = "e-m:e-p270:32:32-p271:32:32-p272:64:64-i64:64-i128:128-f80:128-n8:16:32:64-S128"
target triple = "x86_64-pc-linux-gnu"

%struct.diff_opt_t = type { i32, i32, i32, i32, i32, i32, i32, i32, i32, double, i32, i32, double, i8, i32, i32, i32, i32, i32, i32, i32, i32, ptr, ptr, i32, i64, i32, i64, i64, i32, i64, i64, [32 x i64], [32 x i64], [32 x i64], [32 x i64], [32 x i64], [32 x i64], [2 x ptr], [2 x ptr], [2 x %struct.h5tools_vol_info_t], [2 x %struct.h5tools_vfd_info_t], [2 x i8], [2 x i8], i64 }
%struct.h5tools_vol_info_t = type { i32, ptr, %union.anon }
%union.anon = type { ptr }
%struct.h5tools_vfd_info_t = type { i32, ptr, %union.anon.0 }
%union.anon.0 = type { ptr }

@.str = private unnamed_addr constant [7 x i8] c"h5diff\00", align 1

; Function Attrs: noreturn nounwind uwtable
define dso_local noundef i32 @main(i32 noundef %0, ptr noundef %1) local_unnamed_addr #0 {
  %3 = alloca ptr, align 8
  %4 = alloca ptr, align 8
  %5 = alloca ptr, align 8
  %6 = alloca ptr, align 8
  %7 = alloca %struct.diff_opt_t, align 8
  call void @llvm.lifetime.start.p0(i64 8, ptr nonnull %3) #5
  store ptr null, ptr %3, align 8, !tbaa !4
  call void @llvm.lifetime.start.p0(i64 8, ptr nonnull %4) #5
  store ptr null, ptr %4, align 8, !tbaa !4
  call void @llvm.lifetime.start.p0(i64 8, ptr nonnull %5) #5
  store ptr null, ptr %5, align 8, !tbaa !4
  call void @llvm.lifetime.start.p0(i64 8, ptr nonnull %6) #5
  store ptr null, ptr %6, align 8, !tbaa !4
  call void @llvm.lifetime.start.p0(i64 1864, ptr nonnull %7) #5
  tail call void @h5tools_setprogname(ptr noundef nonnull @.str) #5
  tail call void @h5tools_setstatus(i32 noundef 0) #5
  tail call void @h5tools_init() #5
  call void @parse_command_line(i32 noundef %0, ptr noundef %1, ptr noundef nonnull %3, ptr noundef nonnull %4, ptr noundef nonnull %5, ptr noundef nonnull %6, ptr noundef nonnull %7) #5
  call void @h5tools_error_report() #5
  %8 = load ptr, ptr %3, align 8, !tbaa !4
  %9 = load ptr, ptr %4, align 8, !tbaa !4
  %10 = load ptr, ptr %5, align 8, !tbaa !4
  %11 = load ptr, ptr %6, align 8, !tbaa !4
  %12 = call i64 @h5diff(ptr noundef %8, ptr noundef %9, ptr noundef %10, ptr noundef %11, ptr noundef nonnull %7) #5
  call void @print_info(ptr noundef nonnull %7) #5
  %13 = getelementptr inbounds nuw i8, ptr %7, i64 80
  %14 = load i32, ptr %13, align 8, !tbaa !9
  %15 = getelementptr inbounds nuw i8, ptr %7, i64 136
  %16 = load i32, ptr %15, align 8, !tbaa !16
  %17 = getelementptr inbounds nuw i8, ptr %7, i64 1736
  br label %18

18:                                               ; preds = %2, %42
  %19 = phi i1 [ true, %2 ], [ false, %42 ]
  %indvars.iv = phi i64 [ 0, %2 ], [ 1, %42 ]
  %20 = getelementptr inbounds nuw [2 x ptr], ptr %17, i64 0, i64 %indvars.iv
  %21 = load ptr, ptr %20, align 8, !tbaa !17
  %.not23 = icmp eq ptr %21, null
  br i1 %.not23, label %42, label %22

22:                                               ; preds = %18
  %23 = load ptr, ptr %21, align 8, !tbaa !19
  %.not24 = icmp eq ptr %23, null
  br i1 %.not24, label %25, label %24

24:                                               ; preds = %22
  call void @free(ptr noundef nonnull %23) #5
  %.pre = load ptr, ptr %20, align 8, !tbaa !17
  br label %25

25:                                               ; preds = %24, %22
  %26 = phi ptr [ %.pre, %24 ], [ %21, %22 ]
  %27 = getelementptr inbounds nuw i8, ptr %26, i64 16
  %28 = load ptr, ptr %27, align 8, !tbaa !23
  %.not25 = icmp eq ptr %28, null
  br i1 %.not25, label %30, label %29

29:                                               ; preds = %25
  call void @free(ptr noundef nonnull %28) #5
  %.pre30 = load ptr, ptr %20, align 8, !tbaa !17
  br label %30

30:                                               ; preds = %29, %25
  %31 = phi ptr [ %.pre30, %29 ], [ %26, %25 ]
  %32 = getelementptr inbounds nuw i8, ptr %31, i64 32
  %33 = load ptr, ptr %32, align 8, !tbaa !24
  %.not26 = icmp eq ptr %33, null
  br i1 %.not26, label %35, label %34

34:                                               ; preds = %30
  call void @free(ptr noundef nonnull %33) #5
  %.pre31 = load ptr, ptr %20, align 8, !tbaa !17
  br label %35

35:                                               ; preds = %34, %30
  %36 = phi ptr [ %.pre31, %34 ], [ %31, %30 ]
  %37 = getelementptr inbounds nuw i8, ptr %36, i64 48
  %38 = load ptr, ptr %37, align 8, !tbaa !25
  %.not27 = icmp eq ptr %38, null
  br i1 %.not27, label %40, label %39

39:                                               ; preds = %35
  call void @free(ptr noundef nonnull %38) #5
  %.pre32 = load ptr, ptr %20, align 8, !tbaa !17
  br label %40

40:                                               ; preds = %39, %35
  %41 = phi ptr [ %.pre32, %39 ], [ %36, %35 ]
  call void @free(ptr noundef %41) #5
  store ptr null, ptr %20, align 8, !tbaa !17
  br label %42

42:                                               ; preds = %18, %40
  br i1 %19, label %18, label %43, !llvm.loop !26

43:                                               ; preds = %42
  %.not = icmp eq i32 %16, 0
  %44 = icmp eq i32 %14, 0
  %45 = icmp ne i64 %12, 0
  %narrow = select i1 %44, i1 true, i1 %45
  %spec.store.select = zext i1 %narrow to i32
  %spec.store.select1 = select i1 %.not, i32 %spec.store.select, i32 2
  call void @h5tools_close() #5
  call void @exit(i32 noundef %spec.store.select1) #6
  unreachable
}

; Function Attrs: mustprogress nocallback nofree nosync nounwind willreturn memory(argmem: readwrite)
declare void @llvm.lifetime.start.p0(i64 immarg, ptr captures(none)) #1

declare void @h5tools_setprogname(ptr noundef) local_unnamed_addr #2

declare void @h5tools_setstatus(i32 noundef) local_unnamed_addr #2

declare void @h5tools_init() local_unnamed_addr #2

declare void @parse_command_line(i32 noundef, ptr noundef, ptr noundef, ptr noundef, ptr noundef, ptr noundef, ptr noundef) local_unnamed_addr #2

declare void @h5tools_error_report() local_unnamed_addr #2

declare i64 @h5diff(ptr noundef, ptr noundef, ptr noundef, ptr noundef, ptr noundef) local_unnamed_addr #2

declare void @print_info(ptr noundef) local_unnamed_addr #2

; Function Attrs: mustprogress nounwind willreturn allockind("free") memory(argmem: readwrite, inaccessiblemem: readwrite)
declare void @free(ptr allocptr noundef captures(none)) local_unnamed_addr #3

; Function Attrs: noreturn nounwind uwtable
define dso_local void @h5diff_exit(i32 noundef %0) local_unnamed_addr #0 {
  tail call void @h5tools_close() #5
  tail call void @exit(i32 noundef %0) #6
  unreachable
}

declare void @h5tools_close() local_unnamed_addr #2

; Function Attrs: nofree noreturn nounwind
declare void @exit(i32 noundef) local_unnamed_addr #4


!llvm.module.flags = !{!0, !1, !2, !3}

!0 = !{i32 1, !"wchar_size", i32 4}
!1 = !{i32 8, !"PIC Level", i32 2}
!2 = !{i32 7, !"PIE Level", i32 2}
!3 = !{i32 7, !"uwtable", i32 2}
!4 = !{!5, !5, i64 0}
!5 = !{!"p1 omnipotent char", !6, i64 0}
!6 = !{!"any pointer", !7, i64 0}
!7 = !{!"omnipotent char", !8, i64 0}
!8 = !{!"Simple C/C++ TBAA"}
!9 = !{!10, !11, i64 80}
!10 = !{!"", !11, i64 0, !11, i64 4, !11, i64 8, !11, i64 12, !11, i64 16, !11, i64 20, !11, i64 24, !11, i64 28, !11, i64 32, !12, i64 40, !11, i64 48, !11, i64 52, !12, i64 56, !13, i64 64, !11, i64 68, !11, i64 72, !11, i64 76, !11, i64 80, !11, i64 84, !11, i64 88, !11, i64 92, !11, i64 96, !14, i64 104, !14, i64 112, !11, i64 120, !15, i64 128, !11, i64 136, !15, i64 144, !15, i64 152, !11, i64 160, !15, i64 168, !15, i64 176, !7, i64 184, !7, i64 440, !7, i64 696, !7, i64 952, !7, i64 1208, !7, i64 1464, !7, i64 1720, !7, i64 1736, !7, i64 1752, !7, i64 1800, !7, i64 1848, !7, i64 1850, !15, i64 1856}
!11 = !{!"int", !7, i64 0}
!12 = !{!"double", !7, i64 0}
!13 = !{!"_Bool", !7, i64 0}
!14 = !{!"p1 _ZTS17exclude_path_list", !6, i64 0}
!15 = !{!"long", !7, i64 0}
!16 = !{!10, !11, i64 136}
!17 = !{!18, !18, i64 0}
!18 = !{!"p1 _ZTS8subset_t", !6, i64 0}
!19 = !{!20, !22, i64 0}
!20 = !{!"subset_t", !21, i64 0, !21, i64 16, !21, i64 32, !21, i64 48}
!21 = !{!"subset_d", !22, i64 0, !11, i64 8}
!22 = !{!"p1 long", !6, i64 0}
!23 = !{!20, !22, i64 16}
!24 = !{!20, !22, i64 32}
!25 = !{!20, !22, i64 48}
!26 = distinct !{!26, !27}
!27 = !{!"llvm.loop.mustprogress"}
